target datalayout = "e-m:e-p270:32:32-p271:32:32-p272:64:64-i64:64-i128:128-f80:128-n8:16:32:64-S128"
target triple = "x86_64-pc-linux-gnu"

%struct.AVStream = type { ptr, i32, i32, ptr, ptr, %struct.AVRational, i64, i64, i64, i32, i32, %struct.AVRational, ptr, %struct.AVRational, %struct.AVPacket, i32, %struct.AVRational, i32 }
%struct.AVPacket = type { ptr, i64, i64, ptr, i32, i32, i32, ptr, i32, i64, i64, ptr, ptr, %struct.AVRational }
%struct.AVRational = type { i32, i32 }
%struct.FFStream = type { %struct.AVStream, ptr, i32, ptr, i32, ptr, i32, %struct.anon, i32, i32, %struct.FFFrac, ptr, ptr, i32, i32, i64, i64, i32, i32, i32, i64, i64, i64, i32, i64, i64, i64, i32, i32, [17 x i64], [17 x i8], [17 x i64], i64, i8, i8, %struct.AVRational, %struct.AVProbeData, ptr, i64, i32, i32, i32, ptr, i32, i32, i64, i64, ptr, %struct.AVRational }
%struct.anon = type { ptr, i32 }
%struct.FFFrac = type { i64, i64, i64 }
%struct.AVProbeData = type { ptr, ptr, i32, ptr }
%struct.AVIndexEntry = type { i64, i64, i32, i32 }

; Function Attrs: alwaysinline nounwind uwtable
define internal ptr @ffstream(ptr noundef %0) #2 {
  %2 = alloca ptr, align 8
  store ptr %0, ptr %2, align 8, !tbaa !9
  %3 = load ptr, ptr %2, align 8, !tbaa !9
  ret ptr %3
}

; Function Attrs: nounwind uwtable
define ptr @avformat_index_get_entry_from_timestamp(ptr noundef %0, i64 noundef %1, i32 noundef %2) #0 {
  %4 = alloca ptr, align 8
  %5 = alloca ptr, align 8
  %6 = alloca i64, align 8
  %7 = alloca i32, align 4
  %8 = alloca ptr, align 8
  %9 = alloca i32, align 4
  %10 = alloca i32, align 4
  store ptr %0, ptr %5, align 8, !tbaa !9
  store i64 %1, ptr %6, align 8, !tbaa !11
  store i32 %2, ptr %7, align 4, !tbaa !13
  call void @llvm.lifetime.start.p0(i64 8, ptr %8) #11
  %11 = load ptr, ptr %5, align 8, !tbaa !9
  %12 = call ptr @ffstream(ptr noundef %11)
  store ptr %12, ptr %8, align 8, !tbaa !31
  call void @llvm.lifetime.start.p0(i64 4, ptr %9) #11
  %13 = load ptr, ptr %8, align 8, !tbaa !31
  %14 = getelementptr inbounds nuw %struct.FFStream, ptr %13, i32 0, i32 12
  %15 = load ptr, ptr %14, align 8, !tbaa !57
  %16 = load ptr, ptr %8, align 8, !tbaa !31
  %17 = getelementptr inbounds nuw %struct.FFStream, ptr %16, i32 0, i32 13
  %18 = load i32, ptr %17, align 8, !tbaa !56
  %19 = load i64, ptr %6, align 8, !tbaa !11
  %20 = load i32, ptr %7, align 4, !tbaa !13
  %21 = call i32 @ff_index_search_timestamp(ptr noundef %15, i32 noundef %18, i64 noundef %19, i32 noundef %20)
  store i32 %21, ptr %9, align 4, !tbaa !13
  %22 = load i32, ptr %9, align 4, !tbaa !13
  %23 = icmp slt i32 %22, 0
  br i1 %23, label %24, label %25

24:                                               ; preds = %3
  store ptr null, ptr %4, align 8
  store i32 1, ptr %10, align 4
  br label %32

25:                                               ; preds = %3
  %26 = load ptr, ptr %8, align 8, !tbaa !31
  %27 = getelementptr inbounds nuw %struct.FFStream, ptr %26, i32 0, i32 12
  %28 = load ptr, ptr %27, align 8, !tbaa !57
  %29 = load i32, ptr %9, align 4, !tbaa !13
  %30 = sext i32 %29 to i64
  %31 = getelementptr inbounds %struct.AVIndexEntry, ptr %28, i64 %30
  store ptr %31, ptr %4, align 8
  store i32 1, ptr %10, align 4
  br label %32

32:                                               ; preds = %25, %24
  call void @llvm.lifetime.end.p0(i64 4, ptr %9) #11
  call void @llvm.lifetime.end.p0(i64 8, ptr %8) #11
  %33 = load ptr, ptr %4, align 8
  ret ptr %33
}