; Function Attrs: nofree norecurse nosync nounwind memory(read, inaccessiblemem: none) uwtable
define ptr @avformat_index_get_entry_from_timestamp(ptr noundef readonly captures(none) %0, i64 noundef %1, i32 noundef %2) local_unnamed_addr #10 {
  %4 = getelementptr inbounds nuw i8, ptr %0, i64 320
  %5 = load ptr, ptr %4, align 8, !tbaa !52
  %6 = getelementptr inbounds nuw i8, ptr %0, i64 328
  %7 = load i32, ptr %6, align 8, !tbaa !51
  %8 = tail call i32 @ff_index_search_timestamp(ptr noundef %5, i32 noundef %7, i64 noundef %1, i32 noundef %2)
  %9 = icmp slt i32 %8, 0
  %10 = zext nneg i32 %8 to i64
  %11 = getelementptr inbounds nuw %struct.AVIndexEntry, ptr %5, i64 %10
  %.0 = select i1 %9, ptr null, ptr %11
  ret ptr %.0
}